; Function Attrs: nounwind uwtable
define i32 @FT_Set_MM_WeightVector(ptr noundef %0, i32 noundef %1, ptr noundef %2) local_unnamed_addr #0 {
  %4 = icmp eq i32 %1, 0
  %5 = icmp ne ptr %2, null
  %or.cond = or i1 %4, %5
  br i1 %or.cond, label %6, label %.thread33

6:                                                ; preds = %3
  %.not.i = icmp eq ptr %0, null
  br i1 %.not.i, label %.thread33, label %7

7:                                                ; preds = %6
  %8 = getelementptr inbounds i8, ptr %0, i64 16
  %9 = load i64, ptr %8, align 8
  %10 = and i64 %9, 256
  %.not24.i = icmp eq i64 %10, 0
  br i1 %.not24.i, label %.thread33, label %11

11:                                               ; preds = %7
  %12 = getelementptr inbounds i8, ptr %0, i64 240
  %13 = load ptr, ptr %12, align 8
  %14 = getelementptr inbounds i8, ptr %13, i64 64
  %15 = load ptr, ptr %14, align 8
  %magicptr.i = ptrtoint ptr %15 to i64
  switch i64 %magicptr.i, label %.fold.split.i [
    i64 -2, label %.thread33
    i64 0, label %16
  ]

16:                                               ; preds = %11
  %17 = getelementptr inbounds i8, ptr %0, i64 176
  %18 = load ptr, ptr %17, align 8
  %19 = load ptr, ptr %18, align 8
  %20 = getelementptr inbounds i8, ptr %19, i64 64
  %21 = load ptr, ptr %20, align 8
  %.not25.i = icmp eq ptr %21, null
  br i1 %.not25.i, label %24, label %22

22:                                               ; preds = %16
  %23 = tail call ptr %21(ptr noundef nonnull %18, ptr noundef nonnull @.str) #3
  %.pre.i = load ptr, ptr %12, align 8
  br label %24

24:                                               ; preds = %22, %16
  %25 = phi ptr [ %.pre.i, %22 ], [ %13, %16 ]
  %.0.i = phi ptr [ %23, %22 ], [ null, %16 ]
  %.not26.i = icmp eq ptr %.0.i, null
  %26 = select i1 %.not26.i, ptr inttoptr (i64 -2 to ptr), ptr %.0.i
  %27 = getelementptr inbounds i8, ptr %25, i64 64
  store ptr %26, ptr %27, align 8
  br label %.fold.split.i

.fold.split.i:                                    ; preds = %11, %24
  %.019.i = phi ptr [ %.0.i, %24 ], [ %15, %11 ]
  %.not27.i = icmp eq ptr %.019.i, null
  br i1 %.not27.i, label %.thread33, label %ft_face_get_mm_service.exit

ft_face_get_mm_service.exit:                      ; preds = %.fold.split.i
  %28 = getelementptr inbounds i8, ptr %.019.i, i64 72
  %29 = load ptr, ptr %28, align 8
  %.not22 = icmp eq ptr %29, null
  br i1 %.not22, label %.thread33, label %30

30:                                               ; preds = %ft_face_get_mm_service.exit
  %31 = tail call i32 %29(ptr noundef nonnull %0, i32 noundef %1, ptr noundef %2) #3
  %.not23 = icmp eq i32 %31, 0
  br i1 %.not23, label %32, label %.thread33

32:                                               ; preds = %30
  %33 = load i64, ptr %8, align 8
  %34 = and i64 %33, -32769
  %masksel = select i1 %4, i64 0, i64 32768
  %storemerge = or disjoint i64 %34, %masksel
  store i64 %storemerge, ptr %8, align 8
  %35 = getelementptr inbounds i8, ptr %0, i64 224
  %36 = load ptr, ptr %35, align 8
  %.not26 = icmp eq ptr %36, null
  br i1 %.not26, label %.thread33, label %37

37:                                               ; preds = %32
  %38 = getelementptr inbounds i8, ptr %0, i64 216
  %39 = load ptr, ptr %38, align 8
  tail call void %36(ptr noundef %39) #3
  store ptr null, ptr %38, align 8
  br label %.thread33

.thread33:                                        ; preds = %11, %ft_face_get_mm_service.exit, %.fold.split.i, %7, %6, %30, %32, %37, %3
  %.018 = phi i32 [ 6, %3 ], [ 0, %37 ], [ 0, %32 ], [ %31, %30 ], [ 6, %7 ], [ 35, %6 ], [ 6, %.fold.split.i ], [ 6, %ft_face_get_mm_service.exit ], [ 6, %11 ]
  ret i32 %.018
}